; Function Attrs: mustprogress uwtable
define hidden void @_ZN19OpenColorIO_v2_4dev13BuildMatrixOpERNS_10OpRcPtrVecERKNS_15MatrixTransformENS_18TransformDirectionE(ptr noundef nonnull align 8 dereferenceable(144) %ops, ptr noundef nonnull align 8 dereferenceable(8) %transform, i32 noundef %dir) local_unnamed_addr #3 personality ptr @__gxx_personality_v0 {
entry:
  %mat = alloca %"class.std::shared_ptr", align 8
  %0 = tail call ptr @__dynamic_cast(ptr nonnull %transform, ptr nonnull @_ZTIN19OpenColorIO_v2_4dev15MatrixTransformE, ptr nonnull @_ZTIN19OpenColorIO_v2_4dev19MatrixTransformImplE, i64 0) #20
  %1 = icmp eq ptr %0, null
  br i1 %1, label %dynamic_cast.bad_cast, label %dynamic_cast.end

dynamic_cast.bad_cast:                            ; preds = %entry
  tail call void @__cxa_bad_cast() #21
  unreachable

dynamic_cast.end:                                 ; preds = %entry
  %m_data.i = getelementptr inbounds i8, ptr %0, i64 8
  %vtable = load ptr, ptr %m_data.i, align 8
  %vfn = getelementptr inbounds i8, ptr %vtable, i64 16
  %2 = load ptr, ptr %vfn, align 8
  tail call void %2(ptr noundef nonnull align 8 dereferenceable(260) %m_data.i)
  call void @_ZNK19OpenColorIO_v2_4dev12MatrixOpData5cloneEv(ptr nonnull sret(%"class.std::shared_ptr") align 8 %mat, ptr noundef nonnull align 8 dereferenceable(260) %m_data.i)
  invoke void @_ZN19OpenColorIO_v2_4dev14CreateMatrixOpERNS_10OpRcPtrVecERSt10shared_ptrINS_12MatrixOpDataEENS_18TransformDirectionE(ptr noundef nonnull align 8 dereferenceable(144) %ops, ptr noundef nonnull align 8 dereferenceable(16) %mat, i32 noundef %dir)
          to label %invoke.cont unwind label %lpad

invoke.cont:                                      ; preds = %dynamic_cast.end
  %_M_refcount.i.i = getelementptr inbounds i8, ptr %mat, i64 8
  %3 = load ptr, ptr %_M_refcount.i.i, align 8
  %cmp.not.i.i.i = icmp eq ptr %3, null
  br i1 %cmp.not.i.i.i, label %_ZNSt10shared_ptrIN19OpenColorIO_v2_4dev12MatrixOpDataEED2Ev.exit, label %if.then.i.i.i

if.then.i.i.i:                                    ; preds = %invoke.cont
  %_M_use_count.i.i.i.i = getelementptr inbounds i8, ptr %3, i64 8
  %4 = load atomic i64, ptr %_M_use_count.i.i.i.i acquire, align 8
  %cmp.i.i.i.i = icmp eq i64 %4, 4294967297
  %5 = trunc i64 %4 to i32
  br i1 %cmp.i.i.i.i, label %if.then.i.i.i.i, label %if.end.i.i.i.i

if.then.i.i.i.i:                                  ; preds = %if.then.i.i.i
  store i32 0, ptr %_M_use_count.i.i.i.i, align 8
  %_M_weak_count.i.i.i.i = getelementptr inbounds i8, ptr %3, i64 12
  store i32 0, ptr %_M_weak_count.i.i.i.i, align 4
  %vtable.i.i.i.i = load ptr, ptr %3, align 8
  %vfn.i.i.i.i = getelementptr inbounds i8, ptr %vtable.i.i.i.i, i64 16
  %6 = load ptr, ptr %vfn.i.i.i.i, align 8
  call void %6(ptr noundef nonnull align 8 dereferenceable(16) %3) #20
  br label %if.end8.sink.split.i.i.i.i

if.end.i.i.i.i:                                   ; preds = %if.then.i.i.i
  %7 = load i8, ptr @__libc_single_threaded, align 1
  %tobool.i.not.i.i.i.i = icmp eq i8 %7, 0
  br i1 %tobool.i.not.i.i.i.i, label %if.else.i.i.i.i.i, label %if.then.i.i.i.i.i

if.then.i.i.i.i.i:                                ; preds = %if.end.i.i.i.i
  %add.i.i.i.i.i = add nsw i32 %5, -1
  store i32 %add.i.i.i.i.i, ptr %_M_use_count.i.i.i.i, align 4
  br label %_ZN9__gnu_cxx27__exchange_and_add_dispatchEPii.exit.i.i.i.i

if.else.i.i.i.i.i:                                ; preds = %if.end.i.i.i.i
  %8 = atomicrmw volatile add ptr %_M_use_count.i.i.i.i, i32 -1 acq_rel, align 4
  br label %_ZN9__gnu_cxx27__exchange_and_add_dispatchEPii.exit.i.i.i.i

_ZN9__gnu_cxx27__exchange_and_add_dispatchEPii.exit.i.i.i.i: ; preds = %if.else.i.i.i.i.i, %if.then.i.i.i.i.i
  %retval.i.0.i.i.i.i = phi i32 [ %5, %if.then.i.i.i.i.i ], [ %8, %if.else.i.i.i.i.i ]
  %cmp6.i.i.i.i = icmp eq i32 %retval.i.0.i.i.i.i, 1
  br i1 %cmp6.i.i.i.i, label %if.then7.i.i.i.i, label %_ZNSt10shared_ptrIN19OpenColorIO_v2_4dev12MatrixOpDataEED2Ev.exit

if.then7.i.i.i.i:                                 ; preds = %_ZN9__gnu_cxx27__exchange_and_add_dispatchEPii.exit.i.i.i.i
  %vtable.i.i.i.i.i.i = load ptr, ptr %3, align 8
  %vfn.i.i.i.i.i.i = getelementptr inbounds i8, ptr %vtable.i.i.i.i.i.i, i64 16
  %9 = load ptr, ptr %vfn.i.i.i.i.i.i, align 8
  call void %9(ptr noundef nonnull align 8 dereferenceable(16) %3) #20
  %_M_weak_count.i.i.i.i.i.i = getelementptr inbounds i8, ptr %3, i64 12
  %10 = load i8, ptr @__libc_single_threaded, align 1
  %tobool.i.not.i.i.i.i.i.i = icmp eq i8 %10, 0
  br i1 %tobool.i.not.i.i.i.i.i.i, label %if.else.i.i.i.i.i.i.i, label %if.then.i.i.i.i.i.i.i

if.then.i.i.i.i.i.i.i:                            ; preds = %if.then7.i.i.i.i
  %11 = load i32, ptr %_M_weak_count.i.i.i.i.i.i, align 4
  %add.i.i.i.i.i.i.i = add nsw i32 %11, -1
  store i32 %add.i.i.i.i.i.i.i, ptr %_M_weak_count.i.i.i.i.i.i, align 4
  br label %_ZN9__gnu_cxx27__exchange_and_add_dispatchEPii.exit.i.i.i.i.i.i

if.else.i.i.i.i.i.i.i:                            ; preds = %if.then7.i.i.i.i
  %12 = atomicrmw volatile add ptr %_M_weak_count.i.i.i.i.i.i, i32 -1 acq_rel, align 4
  br label %_ZN9__gnu_cxx27__exchange_and_add_dispatchEPii.exit.i.i.i.i.i.i

_ZN9__gnu_cxx27__exchange_and_add_dispatchEPii.exit.i.i.i.i.i.i: ; preds = %if.else.i.i.i.i.i.i.i, %if.then.i.i.i.i.i.i.i
  %retval.i.0.i.i.i.i.i.i = phi i32 [ %11, %if.then.i.i.i.i.i.i.i ], [ %12, %if.else.i.i.i.i.i.i.i ]
  %cmp.i.i.i.i.i.i = icmp eq i32 %retval.i.0.i.i.i.i.i.i, 1
  br i1 %cmp.i.i.i.i.i.i, label %if.end8.sink.split.i.i.i.i, label %_ZNSt10shared_ptrIN19OpenColorIO_v2_4dev12MatrixOpDataEED2Ev.exit

if.end8.sink.split.i.i.i.i:                       ; preds = %_ZN9__gnu_cxx27__exchange_and_add_dispatchEPii.exit.i.i.i.i.i.i, %if.then.i.i.i.i
  %vtable2.i.i.i.i.i.i = load ptr, ptr %3, align 8
  %vfn3.i.i.i.i.i.i = getelementptr inbounds i8, ptr %vtable2.i.i.i.i.i.i, i64 24
  %13 = load ptr, ptr %vfn3.i.i.i.i.i.i, align 8
  call void %13(ptr noundef nonnull align 8 dereferenceable(16) %3) #20
  br label %_ZNSt10shared_ptrIN19OpenColorIO_v2_4dev12MatrixOpDataEED2Ev.exit

_ZNSt10shared_ptrIN19OpenColorIO_v2_4dev12MatrixOpDataEED2Ev.exit: ; preds = %invoke.cont, %_ZN9__gnu_cxx27__exchange_and_add_dispatchEPii.exit.i.i.i.i, %_ZN9__gnu_cxx27__exchange_and_add_dispatchEPii.exit.i.i.i.i.i.i, %if.end8.sink.split.i.i.i.i
  ret void

lpad:                                             ; preds = %dynamic_cast.end
  %14 = landingpad { ptr, i32 }
          cleanup
  call void @_ZNSt10shared_ptrIN19OpenColorIO_v2_4dev12MatrixOpDataEED2Ev(ptr noundef nonnull align 8 dereferenceable(16) %mat) #20
  resume { ptr, i32 } %14
}